; Function Attrs: mustprogress nofree norecurse nosync nounwind willreturn memory(argmem: write) uwtable
define dso_local void @XML_SetDefaultHandlerExpand(ptr noundef writeonly %0, ptr noundef %1) local_unnamed_addr #2 {
  %3 = icmp eq ptr %0, null
  br i1 %3, label %7, label %4

4:                                                ; preds = %2
  %5 = getelementptr inbounds nuw i8, ptr %0, i64 176
  store ptr %1, ptr %5, align 8, !tbaa !118
  %6 = getelementptr inbounds nuw i8, ptr %0, i64 576
  store i8 1, ptr %6, align 8, !tbaa !72
  br label %7

7:                                                ; preds = %2, %4
  ret void
}